target datalayout = "e-m:e-p270:32:32-p271:32:32-p272:64:64-i64:64-i128:128-f80:128-n8:16:32:64-S128"
target triple = "x86_64-pc-linux-gnu"

%struct.nghttp2_buf = type { ptr, ptr, ptr, ptr, ptr }
%struct.nghttp2_bufs = type { ptr, ptr, ptr, i64, i64, i64, i64, i64 }
%struct.nghttp2_buf_chain = type { ptr, %struct.nghttp2_buf }

; Function Attrs: inlinehint nounwind uwtable
define internal i64 @nghttp2_min_size(i64 noundef %0, i64 noundef %1) #3 {
  %3 = alloca i64, align 8
  %4 = alloca i64, align 8
  store i64 %0, ptr %3, align 8, !tbaa !14
  store i64 %1, ptr %4, align 8, !tbaa !14
  %5 = load i64, ptr %3, align 8, !tbaa !14
  %6 = load i64, ptr %4, align 8, !tbaa !14
  %7 = icmp ult i64 %5, %6
  br i1 %7, label %8, label %10

8:                                                ; preds = %2
  %9 = load i64, ptr %3, align 8, !tbaa !14
  br label %12

10:                                               ; preds = %2
  %11 = load i64, ptr %4, align 8, !tbaa !14
  br label %12

12:                                               ; preds = %10, %8
  %13 = phi i64 [ %9, %8 ], [ %11, %10 ]
  ret i64 %13
}

; Function Attrs: nounwind uwtable
define hidden i32 @nghttp2_bufs_add(ptr noundef %0, ptr noundef %1, i64 noundef %2) #0 {
  %4 = alloca i32, align 4
  %5 = alloca ptr, align 8
  %6 = alloca ptr, align 8
  %7 = alloca i64, align 8
  %8 = alloca i32, align 4
  %9 = alloca i64, align 8
  %10 = alloca ptr, align 8
  %11 = alloca ptr, align 8
  %12 = alloca i32, align 4
  store ptr %0, ptr %5, align 8, !tbaa !3
  store ptr %1, ptr %6, align 8, !tbaa !3
  store i64 %2, ptr %7, align 8, !tbaa !14
  call void @llvm.lifetime.start.p0(i64 4, ptr %8) #4
  call void @llvm.lifetime.start.p0(i64 8, ptr %9) #4
  call void @llvm.lifetime.start.p0(i64 8, ptr %10) #4
  call void @llvm.lifetime.start.p0(i64 8, ptr %11) #4
  %13 = load ptr, ptr %6, align 8, !tbaa !3
  store ptr %13, ptr %11, align 8, !tbaa !16
  br label %14

14:                                               ; preds = %43, %42, %3
  %15 = load i64, ptr %7, align 8, !tbaa !14
  %16 = icmp ne i64 %15, 0
  br i1 %16, label %17, label %58

17:                                               ; preds = %14
  %18 = load ptr, ptr %5, align 8, !tbaa !3
  %19 = getelementptr inbounds nuw %struct.nghttp2_bufs, ptr %18, i32 0, i32 1
  %20 = load ptr, ptr %19, align 8, !tbaa !25
  %21 = getelementptr inbounds nuw %struct.nghttp2_buf_chain, ptr %20, i32 0, i32 1
  store ptr %21, ptr %10, align 8, !tbaa !3
  %22 = load ptr, ptr %10, align 8, !tbaa !3
  %23 = getelementptr inbounds nuw %struct.nghttp2_buf, ptr %22, i32 0, i32 1
  %24 = load ptr, ptr %23, align 8, !tbaa !10
  %25 = load ptr, ptr %10, align 8, !tbaa !3
  %26 = getelementptr inbounds nuw %struct.nghttp2_buf, ptr %25, i32 0, i32 3
  %27 = load ptr, ptr %26, align 8, !tbaa !12
  %28 = ptrtoint ptr %24 to i64
  %29 = ptrtoint ptr %27 to i64
  %30 = sub i64 %28, %29
  %31 = load i64, ptr %7, align 8, !tbaa !14
  %32 = call i64 @nghttp2_min_size(i64 noundef %30, i64 noundef %31)
  store i64 %32, ptr %9, align 8, !tbaa !14
  %33 = load i64, ptr %9, align 8, !tbaa !14
  %34 = icmp eq i64 %33, 0
  br i1 %34, label %35, label %43

35:                                               ; preds = %17
  %36 = load ptr, ptr %5, align 8, !tbaa !3
  %37 = call i32 @bufs_alloc_chain(ptr noundef %36)
  store i32 %37, ptr %8, align 4, !tbaa !17
  %38 = load i32, ptr %8, align 4, !tbaa !17
  %39 = icmp ne i32 %38, 0
  br i1 %39, label %40, label %42

40:                                               ; preds = %35
  %41 = load i32, ptr %8, align 4, !tbaa !17
  store i32 %41, ptr %4, align 4
  store i32 1, ptr %12, align 4
  br label %59

42:                                               ; preds = %35
  br label %14, !llvm.loop !45

43:                                               ; preds = %17
  %44 = load ptr, ptr %10, align 8, !tbaa !3
  %45 = getelementptr inbounds nuw %struct.nghttp2_buf, ptr %44, i32 0, i32 3
  %46 = load ptr, ptr %45, align 8, !tbaa !12
  %47 = load ptr, ptr %11, align 8, !tbaa !16
  %48 = load i64, ptr %9, align 8, !tbaa !14
  %49 = call ptr @nghttp2_cpymem(ptr noundef %46, ptr noundef %47, i64 noundef %48)
  %50 = load ptr, ptr %10, align 8, !tbaa !3
  %51 = getelementptr inbounds nuw %struct.nghttp2_buf, ptr %50, i32 0, i32 3
  store ptr %49, ptr %51, align 8, !tbaa !12
  %52 = load i64, ptr %9, align 8, !tbaa !14
  %53 = load ptr, ptr %11, align 8, !tbaa !16
  %54 = getelementptr inbounds nuw i8, ptr %53, i64 %52
  store ptr %54, ptr %11, align 8, !tbaa !16
  %55 = load i64, ptr %9, align 8, !tbaa !14
  %56 = load i64, ptr %7, align 8, !tbaa !14
  %57 = sub i64 %56, %55
  store i64 %57, ptr %7, align 8, !tbaa !14
  br label %14, !llvm.loop !45

58:                                               ; preds = %14
  store i32 0, ptr %4, align 4
  store i32 1, ptr %12, align 4
  br label %59

59:                                               ; preds = %58, %40
  call void @llvm.lifetime.end.p0(i64 8, ptr %11) #4
  call void @llvm.lifetime.end.p0(i64 8, ptr %10) #4
  call void @llvm.lifetime.end.p0(i64 8, ptr %9) #4
  call void @llvm.lifetime.end.p0(i64 4, ptr %8) #4
  %60 = load i32, ptr %4, align 4
  ret i32 %60
}