; Function Attrs: nounwind uwtable
define hidden range(i32 -901, 1) i32 @nghttp2_bufs_add(ptr noundef captures(none) %0, ptr noundef %1, i64 noundef %2) local_unnamed_addr #1 {
  %4 = getelementptr inbounds nuw i8, ptr %0, i64 8
  %.not48 = icmp eq i64 %2, 0
  br i1 %.not48, label %.split, label %.outer.split.preheader

.outer.split.preheader:                           ; preds = %3, %.outer
  %.0.ph50 = phi ptr [ %19, %.outer ], [ %1, %3 ]
  %.019.ph49 = phi i64 [ %20, %.outer ], [ %2, %3 ]
  br label %.outer.split

.outer.split:                                     ; preds = %.outer.split.preheader, %11
  %5 = load ptr, ptr %4, align 8, !tbaa !19
  %6 = getelementptr inbounds nuw i8, ptr %5, i64 16
  %7 = load ptr, ptr %6, align 8, !tbaa !12
  %8 = getelementptr inbounds nuw i8, ptr %5, i64 32
  %9 = load ptr, ptr %8, align 8, !tbaa !10
  %10 = icmp eq ptr %7, %9
  br i1 %10, label %11, label %.outer

11:                                               ; preds = %.outer.split
  %12 = tail call fastcc i32 @bufs_alloc_chain(ptr noundef nonnull %0)
  %.not22 = icmp eq i32 %12, 0
  br i1 %.not22, label %.outer.split, label %.split, !llvm.loop !37

.outer:                                           ; preds = %.outer.split
  %13 = getelementptr inbounds nuw i8, ptr %5, i64 32
  %14 = ptrtoint ptr %9 to i64
  %15 = ptrtoint ptr %7 to i64
  %16 = sub i64 %15, %14
  %17 = tail call noundef i64 @llvm.umin.i64(i64 %16, i64 range(i64 1, 0) %.019.ph49)
  %18 = tail call ptr @nghttp2_cpymem(ptr noundef %9, ptr noundef %.0.ph50, i64 noundef %17) #10
  store ptr %18, ptr %13, align 8, !tbaa !10
  %19 = getelementptr inbounds nuw i8, ptr %.0.ph50, i64 %17
  %20 = sub i64 %.019.ph49, %17
  %.not = icmp eq i64 %20, 0
  br i1 %.not, label %.split, label %.outer.split.preheader, !llvm.loop !37

.split:                                           ; preds = %.outer, %11, %3
  %.018.split = phi i32 [ 0, %3 ], [ %12, %11 ], [ 0, %.outer ]
  ret i32 %.018.split
}